target datalayout = "e-m:e-p270:32:32-p271:32:32-p272:64:64-i64:64-i128:128-f80:128-n8:16:32:64-S128"
target triple = "x86_64-pc-linux-gnu"

%"struct.duckdb_miniz::mz_zip_archive" = type { i64, i64, i32, i32, i32, i32, i64, ptr, ptr, ptr, ptr, ptr, ptr, ptr, ptr, ptr }
%"struct.duckdb_miniz::mz_zip_internal_state_tag" = type { %"struct.duckdb_miniz::mz_zip_array", %"struct.duckdb_miniz::mz_zip_array", %"struct.duckdb_miniz::mz_zip_array", i32, i32, i32, ptr, i64, ptr, i64, i64 }
%"struct.duckdb_miniz::mz_zip_array" = type { ptr, i64, i64, i32 }

; Function Attrs: alwaysinline mustprogress uwtable
define internal void @_ZN12duckdb_minizL18mz_zip_array_clearEPNS_14mz_zip_archiveEPNS_12mz_zip_arrayE(ptr noundef %0, ptr noundef %1) #9 {
  %3 = alloca ptr, align 8
  %4 = alloca ptr, align 8
  store ptr %0, ptr %3, align 8, !tbaa !19
  store ptr %1, ptr %4, align 8, !tbaa !19
  %5 = load ptr, ptr %3, align 8, !tbaa !19
  %6 = getelementptr inbounds nuw %"struct.duckdb_miniz::mz_zip_archive", ptr %5, i32 0, i32 8
  %7 = load ptr, ptr %6, align 8, !tbaa !234
  %8 = load ptr, ptr %3, align 8, !tbaa !19
  %9 = getelementptr inbounds nuw %"struct.duckdb_miniz::mz_zip_archive", ptr %8, i32 0, i32 10
  %10 = load ptr, ptr %9, align 8, !tbaa !238
  %11 = load ptr, ptr %4, align 8, !tbaa !19
  %12 = getelementptr inbounds nuw %"struct.duckdb_miniz::mz_zip_array", ptr %11, i32 0, i32 0
  %13 = load ptr, ptr %12, align 8, !tbaa !305
  call void %7(ptr noundef %10, ptr noundef %13)
  %14 = load ptr, ptr %4, align 8, !tbaa !19
  call void @llvm.memset.p0.i64(ptr align 8 %14, i8 0, i64 32, i1 false)
  ret void
}

; Function Attrs: mustprogress uwtable
define internal noundef i32 @_ZN12duckdb_minizL26mz_zip_reader_end_internalEPNS_14mz_zip_archiveEi(ptr noundef %0, i32 noundef %1) #5 {
  %3 = alloca i32, align 4
  %4 = alloca ptr, align 8
  %5 = alloca i32, align 4
  %6 = alloca i32, align 4
  %7 = alloca i32, align 4
  %8 = alloca ptr, align 8
  store ptr %0, ptr %4, align 8, !tbaa !19
  store i32 %1, ptr %5, align 4, !tbaa !10
  call void @llvm.lifetime.start.p0(i64 4, ptr %6) #11
  store i32 1, ptr %6, align 4, !tbaa !10
  %9 = load ptr, ptr %4, align 8, !tbaa !19
  %10 = icmp ne ptr %9, null
  br i1 %10, label %12, label %11

11:                                               ; preds = %2
  store i32 0, ptr %3, align 4
  store i32 1, ptr %7, align 4
  br label %70

12:                                               ; preds = %2
  %13 = load ptr, ptr %4, align 8, !tbaa !19
  %14 = getelementptr inbounds nuw %"struct.duckdb_miniz::mz_zip_archive", ptr %13, i32 0, i32 15
  %15 = load ptr, ptr %14, align 8, !tbaa !227
  %16 = icmp ne ptr %15, null
  br i1 %16, label %17, label %32

17:                                               ; preds = %12
  %18 = load ptr, ptr %4, align 8, !tbaa !19
  %19 = getelementptr inbounds nuw %"struct.duckdb_miniz::mz_zip_archive", ptr %18, i32 0, i32 7
  %20 = load ptr, ptr %19, align 8, !tbaa !233
  %21 = icmp ne ptr %20, null
  br i1 %21, label %22, label %32

22:                                               ; preds = %17
  %23 = load ptr, ptr %4, align 8, !tbaa !19
  %24 = getelementptr inbounds nuw %"struct.duckdb_miniz::mz_zip_archive", ptr %23, i32 0, i32 8
  %25 = load ptr, ptr %24, align 8, !tbaa !234
  %26 = icmp ne ptr %25, null
  br i1 %26, label %27, label %32

27:                                               ; preds = %22
  %28 = load ptr, ptr %4, align 8, !tbaa !19
  %29 = getelementptr inbounds nuw %"struct.duckdb_miniz::mz_zip_archive", ptr %28, i32 0, i32 3
  %30 = load i32, ptr %29, align 4, !tbaa !235
  %31 = icmp ne i32 %30, 1
  br i1 %31, label %32, label %39

32:                                               ; preds = %27, %22, %17, %12
  %33 = load i32, ptr %5, align 4, !tbaa !10
  %34 = icmp ne i32 %33, 0
  br i1 %34, label %35, label %38

35:                                               ; preds = %32
  %36 = load ptr, ptr %4, align 8, !tbaa !19
  %37 = getelementptr inbounds nuw %"struct.duckdb_miniz::mz_zip_archive", ptr %36, i32 0, i32 5
  store i32 24, ptr %37, align 4, !tbaa !236
  br label %38

38:                                               ; preds = %35, %32
  store i32 0, ptr %3, align 4
  store i32 1, ptr %7, align 4
  br label %70

39:                                               ; preds = %27
  %40 = load ptr, ptr %4, align 8, !tbaa !19
  %41 = getelementptr inbounds nuw %"struct.duckdb_miniz::mz_zip_archive", ptr %40, i32 0, i32 15
  %42 = load ptr, ptr %41, align 8, !tbaa !227
  %43 = icmp ne ptr %42, null
  br i1 %43, label %44, label %66

44:                                               ; preds = %39
  call void @llvm.lifetime.start.p0(i64 8, ptr %8) #11
  %45 = load ptr, ptr %4, align 8, !tbaa !19
  %46 = getelementptr inbounds nuw %"struct.duckdb_miniz::mz_zip_archive", ptr %45, i32 0, i32 15
  %47 = load ptr, ptr %46, align 8, !tbaa !227
  store ptr %47, ptr %8, align 8, !tbaa !237
  %48 = load ptr, ptr %4, align 8, !tbaa !19
  %49 = getelementptr inbounds nuw %"struct.duckdb_miniz::mz_zip_archive", ptr %48, i32 0, i32 15
  store ptr null, ptr %49, align 8, !tbaa !227
  %50 = load ptr, ptr %4, align 8, !tbaa !19
  %51 = load ptr, ptr %8, align 8, !tbaa !237
  %52 = getelementptr inbounds nuw %"struct.duckdb_miniz::mz_zip_internal_state_tag", ptr %51, i32 0, i32 0
  call void @_ZN12duckdb_minizL18mz_zip_array_clearEPNS_14mz_zip_archiveEPNS_12mz_zip_arrayE(ptr noundef %50, ptr noundef %52)
  %53 = load ptr, ptr %4, align 8, !tbaa !19
  %54 = load ptr, ptr %8, align 8, !tbaa !237
  %55 = getelementptr inbounds nuw %"struct.duckdb_miniz::mz_zip_internal_state_tag", ptr %54, i32 0, i32 1
  call void @_ZN12duckdb_minizL18mz_zip_array_clearEPNS_14mz_zip_archiveEPNS_12mz_zip_arrayE(ptr noundef %53, ptr noundef %55)
  %56 = load ptr, ptr %4, align 8, !tbaa !19
  %57 = load ptr, ptr %8, align 8, !tbaa !237
  %58 = getelementptr inbounds nuw %"struct.duckdb_miniz::mz_zip_internal_state_tag", ptr %57, i32 0, i32 2
  call void @_ZN12duckdb_minizL18mz_zip_array_clearEPNS_14mz_zip_archiveEPNS_12mz_zip_arrayE(ptr noundef %56, ptr noundef %58)
  %59 = load ptr, ptr %4, align 8, !tbaa !19
  %60 = getelementptr inbounds nuw %"struct.duckdb_miniz::mz_zip_archive", ptr %59, i32 0, i32 8
  %61 = load ptr, ptr %60, align 8, !tbaa !234
  %62 = load ptr, ptr %4, align 8, !tbaa !19
  %63 = getelementptr inbounds nuw %"struct.duckdb_miniz::mz_zip_archive", ptr %62, i32 0, i32 10
  %64 = load ptr, ptr %63, align 8, !tbaa !238
  %65 = load ptr, ptr %8, align 8, !tbaa !237
  call void %61(ptr noundef %64, ptr noundef %65)
  call void @llvm.lifetime.end.p0(i64 8, ptr %8) #11
  br label %66

66:                                               ; preds = %44, %39
  %67 = load ptr, ptr %4, align 8, !tbaa !19
  %68 = getelementptr inbounds nuw %"struct.duckdb_miniz::mz_zip_archive", ptr %67, i32 0, i32 3
  store i32 0, ptr %68, align 4, !tbaa !235
  %69 = load i32, ptr %6, align 4, !tbaa !10
  store i32 %69, ptr %3, align 4
  store i32 1, ptr %7, align 4
  br label %70

70:                                               ; preds = %66, %38, %11
  call void @llvm.lifetime.end.p0(i64 4, ptr %6) #11
  %71 = load i32, ptr %3, align 4
  ret i32 %71
}

; Function Attrs: mustprogress uwtable
define internal noundef i32 @_ZN12duckdb_minizL27mz_zip_reader_init_internalEPNS_14mz_zip_archiveEj(ptr noundef %0, i32 noundef %1) #5 {
  %3 = alloca i32, align 4
  %4 = alloca ptr, align 8
  %5 = alloca i32, align 4
  store ptr %0, ptr %4, align 8, !tbaa !19
  store i32 %1, ptr %5, align 4, !tbaa !10
  %6 = load ptr, ptr %4, align 8, !tbaa !19
  %7 = icmp ne ptr %6, null
  br i1 %7, label %8, label %18

8:                                                ; preds = %2
  %9 = load ptr, ptr %4, align 8, !tbaa !19
  %10 = getelementptr inbounds nuw %"struct.duckdb_miniz::mz_zip_archive", ptr %9, i32 0, i32 15
  %11 = load ptr, ptr %10, align 8, !tbaa !227
  %12 = icmp ne ptr %11, null
  br i1 %12, label %18, label %13

13:                                               ; preds = %8
  %14 = load ptr, ptr %4, align 8, !tbaa !19
  %15 = getelementptr inbounds nuw %"struct.duckdb_miniz::mz_zip_archive", ptr %14, i32 0, i32 3
  %16 = load i32, ptr %15, align 4, !tbaa !235
  %17 = icmp ne i32 %16, 0
  br i1 %17, label %18, label %21

18:                                               ; preds = %13, %8, %2
  %19 = load ptr, ptr %4, align 8, !tbaa !19
  %20 = call noundef i32 @_ZN12duckdb_minizL16mz_zip_set_errorEPNS_14mz_zip_archiveENS_12mz_zip_errorE(ptr noundef %19, i32 noundef 24)
  store i32 %20, ptr %3, align 4
  br label %101

21:                                               ; preds = %13
  %22 = load ptr, ptr %4, align 8, !tbaa !19
  %23 = getelementptr inbounds nuw %"struct.duckdb_miniz::mz_zip_archive", ptr %22, i32 0, i32 7
  %24 = load ptr, ptr %23, align 8, !tbaa !233
  %25 = icmp ne ptr %24, null
  br i1 %25, label %29, label %26

26:                                               ; preds = %21
  %27 = load ptr, ptr %4, align 8, !tbaa !19
  %28 = getelementptr inbounds nuw %"struct.duckdb_miniz::mz_zip_archive", ptr %27, i32 0, i32 7
  store ptr @_ZN12duckdb_miniz20miniz_def_alloc_funcEPvmm, ptr %28, align 8, !tbaa !233
  br label %29

29:                                               ; preds = %26, %21
  %30 = load ptr, ptr %4, align 8, !tbaa !19
  %31 = getelementptr inbounds nuw %"struct.duckdb_miniz::mz_zip_archive", ptr %30, i32 0, i32 8
  %32 = load ptr, ptr %31, align 8, !tbaa !234
  %33 = icmp ne ptr %32, null
  br i1 %33, label %37, label %34

34:                                               ; preds = %29
  %35 = load ptr, ptr %4, align 8, !tbaa !19
  %36 = getelementptr inbounds nuw %"struct.duckdb_miniz::mz_zip_archive", ptr %35, i32 0, i32 8
  store ptr @_ZN12duckdb_miniz19miniz_def_free_funcEPvS0_, ptr %36, align 8, !tbaa !234
  br label %37

37:                                               ; preds = %34, %29
  %38 = load ptr, ptr %4, align 8, !tbaa !19
  %39 = getelementptr inbounds nuw %"struct.duckdb_miniz::mz_zip_archive", ptr %38, i32 0, i32 9
  %40 = load ptr, ptr %39, align 8, !tbaa !243
  %41 = icmp ne ptr %40, null
  br i1 %41, label %45, label %42

42:                                               ; preds = %37
  %43 = load ptr, ptr %4, align 8, !tbaa !19
  %44 = getelementptr inbounds nuw %"struct.duckdb_miniz::mz_zip_archive", ptr %43, i32 0, i32 9
  store ptr @_ZN12duckdb_miniz22miniz_def_realloc_funcEPvS0_mm, ptr %44, align 8, !tbaa !243
  br label %45

45:                                               ; preds = %42, %37
  %46 = load ptr, ptr %4, align 8, !tbaa !19
  %47 = getelementptr inbounds nuw %"struct.duckdb_miniz::mz_zip_archive", ptr %46, i32 0, i32 0
  store i64 0, ptr %47, align 8, !tbaa !241
  %48 = load ptr, ptr %4, align 8, !tbaa !19
  %49 = getelementptr inbounds nuw %"struct.duckdb_miniz::mz_zip_archive", ptr %48, i32 0, i32 1
  store i64 0, ptr %49, align 8, !tbaa !244
  %50 = load ptr, ptr %4, align 8, !tbaa !19
  %51 = getelementptr inbounds nuw %"struct.duckdb_miniz::mz_zip_archive", ptr %50, i32 0, i32 2
  store i32 0, ptr %51, align 8, !tbaa !245
  %52 = load ptr, ptr %4, align 8, !tbaa !19
  %53 = getelementptr inbounds nuw %"struct.duckdb_miniz::mz_zip_archive", ptr %52, i32 0, i32 5
  store i32 0, ptr %53, align 4, !tbaa !236
  %54 = load ptr, ptr %4, align 8, !tbaa !19
  %55 = getelementptr inbounds nuw %"struct.duckdb_miniz::mz_zip_archive", ptr %54, i32 0, i32 7
  %56 = load ptr, ptr %55, align 8, !tbaa !233
  %57 = load ptr, ptr %4, align 8, !tbaa !19
  %58 = getelementptr inbounds nuw %"struct.duckdb_miniz::mz_zip_archive", ptr %57, i32 0, i32 10
  %59 = load ptr, ptr %58, align 8, !tbaa !238
  %60 = call noundef ptr %56(ptr noundef %59, i64 noundef 1, i64 noundef 152)
  %61 = load ptr, ptr %4, align 8, !tbaa !19
  %62 = getelementptr inbounds nuw %"struct.duckdb_miniz::mz_zip_archive", ptr %61, i32 0, i32 15
  store ptr %60, ptr %62, align 8, !tbaa !227
  %63 = icmp eq ptr null, %60
  br i1 %63, label %64, label %67

64:                                               ; preds = %45
  %65 = load ptr, ptr %4, align 8, !tbaa !19
  %66 = call noundef i32 @_ZN12duckdb_minizL16mz_zip_set_errorEPNS_14mz_zip_archiveENS_12mz_zip_errorE(ptr noundef %65, i32 noundef 16)
  store i32 %66, ptr %3, align 4
  br label %101

67:                                               ; preds = %45
  %68 = load ptr, ptr %4, align 8, !tbaa !19
  %69 = getelementptr inbounds nuw %"struct.duckdb_miniz::mz_zip_archive", ptr %68, i32 0, i32 15
  %70 = load ptr, ptr %69, align 8, !tbaa !227
  call void @llvm.memset.p0.i64(ptr align 8 %70, i8 0, i64 152, i1 false)
  %71 = load ptr, ptr %4, align 8, !tbaa !19
  %72 = getelementptr inbounds nuw %"struct.duckdb_miniz::mz_zip_archive", ptr %71, i32 0, i32 15
  %73 = load ptr, ptr %72, align 8, !tbaa !227
  %74 = getelementptr inbounds nuw %"struct.duckdb_miniz::mz_zip_internal_state_tag", ptr %73, i32 0, i32 0
  %75 = getelementptr inbounds nuw %"struct.duckdb_miniz::mz_zip_array", ptr %74, i32 0, i32 3
  store i32 1, ptr %75, align 8, !tbaa !246
  %76 = load ptr, ptr %4, align 8, !tbaa !19
  %77 = getelementptr inbounds nuw %"struct.duckdb_miniz::mz_zip_archive", ptr %76, i32 0, i32 15
  %78 = load ptr, ptr %77, align 8, !tbaa !227
  %79 = getelementptr inbounds nuw %"struct.duckdb_miniz::mz_zip_internal_state_tag", ptr %78, i32 0, i32 1
  %80 = getelementptr inbounds nuw %"struct.duckdb_miniz::mz_zip_array", ptr %79, i32 0, i32 3
  store i32 4, ptr %80, align 8, !tbaa !249
  %81 = load ptr, ptr %4, align 8, !tbaa !19
  %82 = getelementptr inbounds nuw %"struct.duckdb_miniz::mz_zip_archive", ptr %81, i32 0, i32 15
  %83 = load ptr, ptr %82, align 8, !tbaa !227
  %84 = getelementptr inbounds nuw %"struct.duckdb_miniz::mz_zip_internal_state_tag", ptr %83, i32 0, i32 2
  %85 = getelementptr inbounds nuw %"struct.duckdb_miniz::mz_zip_array", ptr %84, i32 0, i32 3
  store i32 4, ptr %85, align 8, !tbaa !250
  %86 = load i32, ptr %5, align 4, !tbaa !10
  %87 = load ptr, ptr %4, align 8, !tbaa !19
  %88 = getelementptr inbounds nuw %"struct.duckdb_miniz::mz_zip_archive", ptr %87, i32 0, i32 15
  %89 = load ptr, ptr %88, align 8, !tbaa !227
  %90 = getelementptr inbounds nuw %"struct.duckdb_miniz::mz_zip_internal_state_tag", ptr %89, i32 0, i32 3
  store i32 %86, ptr %90, align 8, !tbaa !251
  %91 = load ptr, ptr %4, align 8, !tbaa !19
  %92 = getelementptr inbounds nuw %"struct.duckdb_miniz::mz_zip_archive", ptr %91, i32 0, i32 15
  %93 = load ptr, ptr %92, align 8, !tbaa !227
  %94 = getelementptr inbounds nuw %"struct.duckdb_miniz::mz_zip_internal_state_tag", ptr %93, i32 0, i32 4
  store i32 0, ptr %94, align 4, !tbaa !252
  %95 = load ptr, ptr %4, align 8, !tbaa !19
  %96 = getelementptr inbounds nuw %"struct.duckdb_miniz::mz_zip_archive", ptr %95, i32 0, i32 15
  %97 = load ptr, ptr %96, align 8, !tbaa !227
  %98 = getelementptr inbounds nuw %"struct.duckdb_miniz::mz_zip_internal_state_tag", ptr %97, i32 0, i32 5
  store i32 0, ptr %98, align 8, !tbaa !253
  %99 = load ptr, ptr %4, align 8, !tbaa !19
  %100 = getelementptr inbounds nuw %"struct.duckdb_miniz::mz_zip_archive", ptr %99, i32 0, i32 3
  store i32 1, ptr %100, align 4, !tbaa !235
  store i32 1, ptr %3, align 4
  br label %101

101:                                              ; preds = %67, %64, %18
  %102 = load i32, ptr %3, align 4
  ret i32 %102
}

; Function Attrs: alwaysinline mustprogress nounwind uwtable
define internal noundef i32 @_ZN12duckdb_minizL16mz_zip_set_errorEPNS_14mz_zip_archiveENS_12mz_zip_errorE(ptr noundef %0, i32 noundef %1) #8 {
  %3 = alloca ptr, align 8
  %4 = alloca i32, align 4
  store ptr %0, ptr %3, align 8, !tbaa !19
  store i32 %1, ptr %4, align 4, !tbaa !242
  %5 = load ptr, ptr %3, align 8, !tbaa !19
  %6 = icmp ne ptr %5, null
  br i1 %6, label %7, label %11

7:                                                ; preds = %2
  %8 = load i32, ptr %4, align 4, !tbaa !242
  %9 = load ptr, ptr %3, align 8, !tbaa !19
  %10 = getelementptr inbounds nuw %"struct.duckdb_miniz::mz_zip_archive", ptr %9, i32 0, i32 5
  store i32 %8, ptr %10, align 4, !tbaa !236
  br label %11

11:                                               ; preds = %7, %2
  ret i32 0
}

; Function Attrs: mustprogress uwtable
define noundef i32 @_ZN12duckdb_miniz18mz_zip_reader_initEPNS_14mz_zip_archiveEmj(ptr noundef %0, i64 noundef %1, i32 noundef %2) #5 {
  %4 = alloca i32, align 4
  %5 = alloca ptr, align 8
  %6 = alloca i64, align 8
  %7 = alloca i32, align 4
  store ptr %0, ptr %5, align 8, !tbaa !19
  store i64 %1, ptr %6, align 8, !tbaa !3
  store i32 %2, ptr %7, align 4, !tbaa !10
  %8 = load ptr, ptr %5, align 8, !tbaa !19
  %9 = icmp ne ptr %8, null
  br i1 %9, label %10, label %15

10:                                               ; preds = %3
  %11 = load ptr, ptr %5, align 8, !tbaa !19
  %12 = getelementptr inbounds nuw %"struct.duckdb_miniz::mz_zip_archive", ptr %11, i32 0, i32 11
  %13 = load ptr, ptr %12, align 8, !tbaa !239
  %14 = icmp ne ptr %13, null
  br i1 %14, label %18, label %15

15:                                               ; preds = %10, %3
  %16 = load ptr, ptr %5, align 8, !tbaa !19
  %17 = call noundef i32 @_ZN12duckdb_minizL16mz_zip_set_errorEPNS_14mz_zip_archiveENS_12mz_zip_errorE(ptr noundef %16, i32 noundef 24)
  store i32 %17, ptr %4, align 4
  br label %38

18:                                               ; preds = %10
  %19 = load ptr, ptr %5, align 8, !tbaa !19
  %20 = load i32, ptr %7, align 4, !tbaa !10
  %21 = call noundef i32 @_ZN12duckdb_minizL27mz_zip_reader_init_internalEPNS_14mz_zip_archiveEj(ptr noundef %19, i32 noundef %20)
  %22 = icmp ne i32 %21, 0
  br i1 %22, label %24, label %23

23:                                               ; preds = %18
  store i32 0, ptr %4, align 4
  br label %38

24:                                               ; preds = %18
  %25 = load ptr, ptr %5, align 8, !tbaa !19
  %26 = getelementptr inbounds nuw %"struct.duckdb_miniz::mz_zip_archive", ptr %25, i32 0, i32 4
  store i32 1, ptr %26, align 8, !tbaa !240
  %27 = load i64, ptr %6, align 8, !tbaa !3
  %28 = load ptr, ptr %5, align 8, !tbaa !19
  %29 = getelementptr inbounds nuw %"struct.duckdb_miniz::mz_zip_archive", ptr %28, i32 0, i32 0
  store i64 %27, ptr %29, align 8, !tbaa !241
  %30 = load ptr, ptr %5, align 8, !tbaa !19
  %31 = load i32, ptr %7, align 4, !tbaa !10
  %32 = call noundef i32 @_ZN12duckdb_minizL30mz_zip_reader_read_central_dirEPNS_14mz_zip_archiveEj(ptr noundef %30, i32 noundef %31)
  %33 = icmp ne i32 %32, 0
  br i1 %33, label %37, label %34

34:                                               ; preds = %24
  %35 = load ptr, ptr %5, align 8, !tbaa !19
  %36 = call noundef i32 @_ZN12duckdb_minizL26mz_zip_reader_end_internalEPNS_14mz_zip_archiveEi(ptr noundef %35, i32 noundef 0)
  store i32 0, ptr %4, align 4
  br label %38

37:                                               ; preds = %24
  store i32 1, ptr %4, align 4
  br label %38

38:                                               ; preds = %37, %34, %23, %15
  %39 = load i32, ptr %4, align 4
  ret i32 %39
}