; Function Attrs: mustprogress uwtable
define noundef range(i32 0, 2) i32 @_ZN12duckdb_miniz18mz_zip_reader_initEPNS_14mz_zip_archiveEmj(ptr noundef captures(address_is_null) %0, i64 noundef %1, i32 noundef %2) local_unnamed_addr #8 {
  %.not = icmp eq ptr %0, null
  br i1 %.not, label %.split, label %4

4:                                                ; preds = %3
  %5 = getelementptr inbounds nuw i8, ptr %0, i64 72
  %6 = load ptr, ptr %5, align 8, !tbaa !217
  %.not13 = icmp eq ptr %6, null
  br i1 %.not13, label %_ZN12duckdb_minizL16mz_zip_set_errorEPNS_14mz_zip_archiveENS_12mz_zip_errorE.exit, label %8

_ZN12duckdb_minizL16mz_zip_set_errorEPNS_14mz_zip_archiveENS_12mz_zip_errorE.exit: ; preds = %4
  %7 = getelementptr inbounds nuw i8, ptr %0, i64 28
  store i32 24, ptr %7, align 4, !tbaa !213
  br label %.split

8:                                                ; preds = %4
  %9 = getelementptr inbounds nuw i8, ptr %0, i64 104
  %10 = load ptr, ptr %9, align 8, !tbaa !204
  %.not29.i = icmp eq ptr %10, null
  br i1 %.not29.i, label %11, label %14

11:                                               ; preds = %8
  %12 = getelementptr inbounds nuw i8, ptr %0, i64 20
  %13 = load i32, ptr %12, align 4, !tbaa !212
  %.not30.i = icmp eq i32 %13, 0
  br i1 %.not30.i, label %16, label %14

14:                                               ; preds = %11, %8
  %15 = getelementptr inbounds nuw i8, ptr %0, i64 28
  store i32 24, ptr %15, align 4, !tbaa !213
  br label %.split

16:                                               ; preds = %11
  %17 = getelementptr inbounds nuw i8, ptr %0, i64 40
  %18 = load ptr, ptr %17, align 8, !tbaa !210
  %.not31.i = icmp eq ptr %18, null
  br i1 %.not31.i, label %19, label %20

19:                                               ; preds = %16
  store ptr @_ZN12duckdb_miniz20miniz_def_alloc_funcEPvmm, ptr %17, align 8, !tbaa !210
  br label %20

20:                                               ; preds = %19, %16
  %21 = phi ptr [ @_ZN12duckdb_miniz20miniz_def_alloc_funcEPvmm, %19 ], [ %18, %16 ]
  %22 = getelementptr inbounds nuw i8, ptr %0, i64 48
  %23 = load ptr, ptr %22, align 8, !tbaa !211
  %.not32.i = icmp eq ptr %23, null
  br i1 %.not32.i, label %24, label %25

24:                                               ; preds = %20
  store ptr @_ZN12duckdb_miniz19miniz_def_free_funcEPvS0_, ptr %22, align 8, !tbaa !211
  br label %25

25:                                               ; preds = %24, %20
  %26 = getelementptr inbounds nuw i8, ptr %0, i64 56
  %27 = load ptr, ptr %26, align 8, !tbaa !218
  %.not33.i = icmp eq ptr %27, null
  br i1 %.not33.i, label %28, label %29

28:                                               ; preds = %25
  store ptr @_ZN12duckdb_miniz22miniz_def_realloc_funcEPvS0_mm, ptr %26, align 8, !tbaa !218
  br label %29

29:                                               ; preds = %28, %25
  %30 = getelementptr inbounds nuw i8, ptr %0, i64 28
  store i32 0, ptr %30, align 4, !tbaa !213
  %31 = getelementptr inbounds nuw i8, ptr %0, i64 64
  tail call void @llvm.memset.p0.i64(ptr noundef nonnull align 8 dereferenceable(20) %0, i8 0, i64 20, i1 false)
  %32 = load ptr, ptr %31, align 8, !tbaa !214
  %33 = tail call noundef ptr %21(ptr noundef %32, i64 noundef 1, i64 noundef 152)
  store ptr %33, ptr %9, align 8, !tbaa !204
  %34 = icmp eq ptr %33, null
  br i1 %34, label %_ZN12duckdb_minizL16mz_zip_set_errorEPNS_14mz_zip_archiveENS_12mz_zip_errorE.exit.i, label %35

_ZN12duckdb_minizL16mz_zip_set_errorEPNS_14mz_zip_archiveENS_12mz_zip_errorE.exit.i: ; preds = %29
  store i32 16, ptr %30, align 4, !tbaa !213
  br label %.split

35:                                               ; preds = %29
  tail call void @llvm.memset.p0.i64(ptr noundef nonnull align 8 dereferenceable(152) %33, i8 0, i64 152, i1 false)
  %36 = load ptr, ptr %9, align 8, !tbaa !204
  %37 = getelementptr inbounds nuw i8, ptr %36, i64 24
  store i32 1, ptr %37, align 8, !tbaa !219
  %38 = getelementptr inbounds nuw i8, ptr %36, i64 56
  store i32 4, ptr %38, align 8, !tbaa !221
  %39 = getelementptr inbounds nuw i8, ptr %36, i64 88
  store i32 4, ptr %39, align 8, !tbaa !222
  %40 = getelementptr inbounds nuw i8, ptr %36, i64 96
  store i32 %2, ptr %40, align 8, !tbaa !223
  %41 = getelementptr inbounds nuw i8, ptr %36, i64 100
  store i32 0, ptr %41, align 4, !tbaa !224
  %42 = getelementptr inbounds nuw i8, ptr %36, i64 104
  store i32 0, ptr %42, align 8, !tbaa !225
  store i32 1, ptr %12, align 4, !tbaa !212
  %43 = getelementptr inbounds nuw i8, ptr %0, i64 24
  store i32 1, ptr %43, align 8, !tbaa !226
  store i64 %1, ptr %0, align 8, !tbaa !227
  %44 = tail call fastcc noundef i32 @_ZN12duckdb_minizL30mz_zip_reader_read_central_dirEPNS_14mz_zip_archiveEj(ptr noundef nonnull %0, i32 noundef %2)
  %.not15 = icmp eq i32 %44, 0
  br i1 %.not15, label %45, label %.split

45:                                               ; preds = %35
  %46 = load ptr, ptr %9, align 8, !tbaa !204
  %.not23.i = icmp eq ptr %46, null
  br i1 %.not23.i, label %.split, label %47

47:                                               ; preds = %45
  %48 = load ptr, ptr %17, align 8, !tbaa !210
  %.not24.i = icmp eq ptr %48, null
  br i1 %.not24.i, label %.split, label %49

49:                                               ; preds = %47
  %50 = load ptr, ptr %22, align 8, !tbaa !211
  %.not25.i = icmp eq ptr %50, null
  br i1 %.not25.i, label %.split, label %51

51:                                               ; preds = %49
  %52 = load i32, ptr %12, align 4, !tbaa !212
  %.not26.i = icmp eq i32 %52, 1
  br i1 %.not26.i, label %53, label %.split

53:                                               ; preds = %51
  store ptr null, ptr %9, align 8, !tbaa !204
  %54 = load ptr, ptr %31, align 8, !tbaa !214
  %55 = load ptr, ptr %46, align 8, !tbaa !215
  tail call void %50(ptr noundef %54, ptr noundef %55)
  tail call void @llvm.memset.p0.i64(ptr noundef nonnull align 8 dereferenceable(32) %46, i8 0, i64 32, i1 false)
  %56 = getelementptr inbounds nuw i8, ptr %46, i64 32
  %57 = load ptr, ptr %22, align 8, !tbaa !211
  %58 = load ptr, ptr %31, align 8, !tbaa !214
  %59 = load ptr, ptr %56, align 8, !tbaa !215
  tail call void %57(ptr noundef %58, ptr noundef %59)
  tail call void @llvm.memset.p0.i64(ptr noundef nonnull align 8 dereferenceable(32) %56, i8 0, i64 32, i1 false)
  %60 = getelementptr inbounds nuw i8, ptr %46, i64 64
  %61 = load ptr, ptr %22, align 8, !tbaa !211
  %62 = load ptr, ptr %31, align 8, !tbaa !214
  %63 = load ptr, ptr %60, align 8, !tbaa !215
  tail call void %61(ptr noundef %62, ptr noundef %63)
  tail call void @llvm.memset.p0.i64(ptr noundef nonnull align 8 dereferenceable(32) %60, i8 0, i64 32, i1 false)
  %64 = load ptr, ptr %22, align 8, !tbaa !211
  %65 = load ptr, ptr %31, align 8, !tbaa !214
  tail call void %64(ptr noundef %65, ptr noundef nonnull %46)
  store i32 0, ptr %12, align 4, !tbaa !212
  br label %.split

.split:                                           ; preds = %14, %_ZN12duckdb_minizL16mz_zip_set_errorEPNS_14mz_zip_archiveENS_12mz_zip_errorE.exit.i, %53, %51, %49, %47, %45, %3, %35, %_ZN12duckdb_minizL16mz_zip_set_errorEPNS_14mz_zip_archiveENS_12mz_zip_errorE.exit
  %.0 = phi i32 [ 0, %_ZN12duckdb_minizL16mz_zip_set_errorEPNS_14mz_zip_archiveENS_12mz_zip_errorE.exit ], [ 1, %35 ], [ 0, %3 ], [ 0, %45 ], [ 0, %47 ], [ 0, %49 ], [ 0, %51 ], [ 0, %53 ], [ 0, %_ZN12duckdb_minizL16mz_zip_set_errorEPNS_14mz_zip_archiveENS_12mz_zip_errorE.exit.i ], [ 0, %14 ]
  ret i32 %.0
}